; Function Attrs: mustprogress uwtable
define void @_ZN3gmx12AnalysisDataC2Ev(ptr noundef nonnull align 8 dereferenceable(24) %0) unnamed_addr #1 align 2 personality ptr @__gxx_personality_v0 {
  tail call void @_ZN3gmx20AbstractAnalysisDataC2Ev(ptr noundef nonnull align 8 dereferenceable(16) %0)
  store ptr getelementptr inbounds nuw inrange(-16, 40) (i8, ptr @_ZTVN3gmx12AnalysisDataE, i64 16), ptr %0, align 8, !tbaa !9
  %2 = invoke noalias noundef nonnull dereferenceable(32) ptr @_Znwm(i64 noundef 32) #14
          to label %3 unwind label %7

3:                                                ; preds = %1
  invoke void @_ZN3gmx19AnalysisDataStorageC1Ev(ptr noundef nonnull align 8 dereferenceable(32) %2)
          to label %4 unwind label %9

4:                                                ; preds = %3
  %5 = getelementptr inbounds nuw i8, ptr %2, i64 8
  tail call void @llvm.memset.p0.i64(ptr noundef nonnull align 8 dereferenceable(24) %5, i8 0, i64 24, i1 false)
  %6 = getelementptr inbounds nuw i8, ptr %0, i64 16
  store ptr %2, ptr %6, align 8, !tbaa !4
  ret void

7:                                                ; preds = %1
  %8 = landingpad { ptr, i32 }
          cleanup
  br label %11

9:                                                ; preds = %3
  %10 = landingpad { ptr, i32 }
          cleanup
  tail call void @_ZdlPvm(ptr noundef nonnull %2, i64 noundef 32) #13
  br label %11

11:                                               ; preds = %9, %7
  %.pn = phi { ptr, i32 } [ %10, %9 ], [ %8, %7 ]
  tail call void @_ZN3gmx20AbstractAnalysisDataD2Ev(ptr noundef nonnull align 8 dereferenceable(16) %0) #12
  resume { ptr, i32 } %.pn
}